; Function Attrs: nounwind uwtable
define dso_local noundef ptr @InitDiscoverCompressFileHandle(ptr noundef %0, ptr noundef %1) local_unnamed_addr #0 {
  %3 = alloca %struct.pg_compress_specification, align 8
  %4 = alloca %struct.stat, align 8
  %5 = alloca ptr, align 8
  call void @llvm.lifetime.start.p0(i64 144, ptr nonnull %4) #9
  call void @llvm.lifetime.start.p0(i64 8, ptr nonnull %5) #9
  %6 = tail call ptr @pg_strdup(ptr noundef %0) #9
  store ptr %6, ptr %5, align 8
  %7 = tail call i64 @strlen(ptr noundef nonnull readonly dereferenceable(1) %6) #10
  %8 = trunc i64 %7 to i32
  %9 = icmp slt i32 %8, 3
  br i1 %9, label %hasSuffix.exit21.thread, label %hasSuffix.exit

hasSuffix.exit:                                   ; preds = %2
  %10 = shl i64 %7, 32
  %sext.i = add nsw i64 %10, -12884901888
  %11 = ashr exact i64 %sext.i, 32
  %12 = getelementptr inbounds i8, ptr %6, i64 %11
  %bcmp.i = tail call i32 @bcmp(ptr noundef nonnull readonly dereferenceable(3) %12, ptr noundef nonnull dereferenceable(3) @.str.1, i64 3)
  %.not = icmp eq i32 %bcmp.i, 0
  br i1 %.not, label %34, label %hasSuffix.exit.thread

hasSuffix.exit.thread:                            ; preds = %hasSuffix.exit
  %13 = icmp eq i32 %8, 3
  br i1 %13, label %hasSuffix.exit21.thread, label %hasSuffix.exit16

hasSuffix.exit16:                                 ; preds = %hasSuffix.exit.thread
  %14 = shl i64 %7, 32
  %sext.i12 = add nsw i64 %14, -17179869184
  %15 = ashr exact i64 %sext.i12, 32
  %16 = getelementptr inbounds i8, ptr %6, i64 %15
  %bcmp.i14 = tail call i32 @bcmp(ptr noundef nonnull readonly dereferenceable(4) %16, ptr noundef nonnull dereferenceable(4) @.str.2, i64 4)
  %.not38 = icmp eq i32 %bcmp.i14, 0
  br i1 %.not38, label %36, label %hasSuffix.exit21

hasSuffix.exit21:                                 ; preds = %hasSuffix.exit16
  %17 = shl i64 %7, 32
  %sext.i17 = add nsw i64 %17, -17179869184
  %18 = ashr exact i64 %sext.i17, 32
  %19 = getelementptr inbounds i8, ptr %6, i64 %18
  %bcmp.i19 = tail call i32 @bcmp(ptr noundef nonnull readonly dereferenceable(4) %19, ptr noundef nonnull dereferenceable(4) @.str.3, i64 4)
  %.not39 = icmp eq i32 %bcmp.i19, 0
  br i1 %.not39, label %38, label %hasSuffix.exit21.thread

hasSuffix.exit21.thread:                          ; preds = %2, %hasSuffix.exit.thread, %hasSuffix.exit21
  %20 = call i32 @stat(ptr noundef %0, ptr noundef nonnull %4) #9
  %21 = icmp eq i32 %20, 0
  br i1 %21, label %32, label %22

22:                                               ; preds = %hasSuffix.exit21.thread
  %23 = tail call ptr @__errno_location() #11
  %24 = load i32, ptr %23, align 4
  tail call void @free(ptr noundef nonnull %6) #9
  store i32 %24, ptr %23, align 4
  %25 = tail call ptr (ptr, ...) @psprintf(ptr noundef nonnull @.str.7, ptr noundef %0, ptr noundef nonnull @.str.4) #9
  store ptr %25, ptr %5, align 8
  %26 = tail call i32 @access(ptr noundef %25, i32 noundef 0) #9
  %27 = icmp eq i32 %26, 0
  br i1 %27, label %34, label %28

28:                                               ; preds = %22
  %29 = call fastcc zeroext i1 @check_compressed_file(ptr noundef %0, ptr noundef %5, ptr noundef nonnull @.str.5)
  br i1 %29, label %36, label %30

30:                                               ; preds = %28
  %31 = call fastcc zeroext i1 @check_compressed_file(ptr noundef %0, ptr noundef %5, ptr noundef nonnull @.str.6)
  br i1 %31, label %38, label %32

32:                                               ; preds = %30, %hasSuffix.exit21.thread
  call void @llvm.lifetime.start.p0(i64 32, ptr nonnull %3)
  call void @llvm.memset.p0.i64(ptr noundef nonnull align 8 dereferenceable(32) %3, i8 0, i64 32, i1 false)
  %33 = tail call ptr @pg_malloc0(i64 noundef 112) #9
  tail call void @InitCompressFileHandleNone(ptr noundef %33, ptr noundef nonnull byval(%struct.pg_compress_specification) align 8 %3) #9
  br label %InitCompressFileHandle.exit

34:                                               ; preds = %hasSuffix.exit, %22
  call void @llvm.lifetime.start.p0(i64 32, ptr nonnull %3)
  store i32 1, ptr %3, align 8
  %.sroa.12.0..sroa_idx33 = getelementptr inbounds nuw i8, ptr %3, i64 4
  call void @llvm.memset.p0.i64(ptr noundef nonnull align 4 dereferenceable(28) %.sroa.12.0..sroa_idx33, i8 0, i64 28, i1 false)
  %35 = tail call ptr @pg_malloc0(i64 noundef 112) #9
  tail call void @InitCompressFileHandleGzip(ptr noundef %35, ptr noundef nonnull byval(%struct.pg_compress_specification) align 8 %3) #9
  br label %InitCompressFileHandle.exit

36:                                               ; preds = %hasSuffix.exit16, %28
  call void @llvm.lifetime.start.p0(i64 32, ptr nonnull %3)
  store i32 2, ptr %3, align 8
  %.sroa.12.0..sroa_idx37 = getelementptr inbounds nuw i8, ptr %3, i64 4
  call void @llvm.memset.p0.i64(ptr noundef nonnull align 4 dereferenceable(28) %.sroa.12.0..sroa_idx37, i8 0, i64 28, i1 false)
  %37 = tail call ptr @pg_malloc0(i64 noundef 112) #9
  tail call void @InitCompressFileHandleLZ4(ptr noundef %37, ptr noundef nonnull byval(%struct.pg_compress_specification) align 8 %3) #9
  br label %InitCompressFileHandle.exit

38:                                               ; preds = %30, %hasSuffix.exit21
  call void @llvm.lifetime.start.p0(i64 32, ptr nonnull %3)
  store i32 3, ptr %3, align 8
  %.sroa.12.0..sroa_idx = getelementptr inbounds nuw i8, ptr %3, i64 4
  call void @llvm.memset.p0.i64(ptr noundef nonnull align 4 dereferenceable(28) %.sroa.12.0..sroa_idx, i8 0, i64 28, i1 false)
  %39 = tail call ptr @pg_malloc0(i64 noundef 112) #9
  tail call void @InitCompressFileHandleZstd(ptr noundef %39, ptr noundef nonnull byval(%struct.pg_compress_specification) align 8 %3) #9
  br label %InitCompressFileHandle.exit

InitCompressFileHandle.exit:                      ; preds = %32, %34, %36, %38
  %40 = phi ptr [ %33, %32 ], [ %35, %34 ], [ %37, %36 ], [ %39, %38 ]
  call void @llvm.lifetime.end.p0(i64 32, ptr nonnull %3)
  %41 = load ptr, ptr %40, align 8
  %42 = load ptr, ptr %5, align 8
  %43 = tail call zeroext i1 %41(ptr noundef %42, i32 noundef -1, ptr noundef %1, ptr noundef nonnull %40) #9
  %.pre = tail call ptr @__errno_location() #11
  br i1 %43, label %InitCompressFileHandle.exit._crit_edge, label %44

44:                                               ; preds = %InitCompressFileHandle.exit
  %45 = load i32, ptr %.pre, align 4
  tail call void @free(ptr noundef nonnull %40) #9
  store i32 %45, ptr %.pre, align 4
  br label %InitCompressFileHandle.exit._crit_edge

InitCompressFileHandle.exit._crit_edge:           ; preds = %InitCompressFileHandle.exit, %44
  %.0 = phi ptr [ null, %44 ], [ %40, %InitCompressFileHandle.exit ]
  %46 = load i32, ptr %.pre, align 4
  tail call void @free(ptr noundef %42) #9
  store i32 %46, ptr %.pre, align 4
  call void @llvm.lifetime.end.p0(i64 8, ptr nonnull %5) #9
  call void @llvm.lifetime.end.p0(i64 144, ptr nonnull %4) #9
  ret ptr %.0
}